target datalayout = "e-m:e-p270:32:32-p271:32:32-p272:64:64-i64:64-i128:128-f80:128-n8:16:32:64-S128"
target triple = "x86_64-pc-linux-gnu"

%struct.StateVars = type { i32, i32, i32, i32, i8, i64 }

@.str = private unnamed_addr constant [30 x i8] c"Assertion %s failed at %s:%d\0A\00", align 1
@.str.2 = private unnamed_addr constant [27 x i8] c"libavcodec/jpeg2000htdec.c\00", align 1
@.str.9 = private unnamed_addr constant [13 x i8] c"index < 1024\00", align 1

; Function Attrs: alwaysinline nounwind uwtable
define internal void @jpeg2000_bitbuf_drop_bits_lsb(ptr noundef %0, i8 noundef zeroext %1) #5 {
  %3 = alloca ptr, align 8
  %4 = alloca i8, align 1
  store ptr %0, ptr %3, align 8, !tbaa !47
  store i8 %1, ptr %4, align 1, !tbaa !17
  %5 = load i8, ptr %4, align 1, !tbaa !17
  %6 = zext i8 %5 to i32
  %7 = load ptr, ptr %3, align 8, !tbaa !47
  %8 = getelementptr inbounds nuw %struct.StateVars, ptr %7, i32 0, i32 5
  %9 = load i64, ptr %8, align 8, !tbaa !51
  %10 = zext i32 %6 to i64
  %11 = lshr i64 %9, %10
  store i64 %11, ptr %8, align 8, !tbaa !51
  %12 = load i8, ptr %4, align 1, !tbaa !17
  %13 = zext i8 %12 to i32
  %14 = load ptr, ptr %3, align 8, !tbaa !47
  %15 = getelementptr inbounds nuw %struct.StateVars, ptr %14, i32 0, i32 4
  %16 = load i8, ptr %15, align 8, !tbaa !49
  %17 = zext i8 %16 to i32
  %18 = sub nsw i32 %17, %13
  %19 = trunc i32 %18 to i8
  store i8 %19, ptr %15, align 8, !tbaa !49
  ret void
}

; Function Attrs: alwaysinline nounwind uwtable
define internal i32 @jpeg2000_decode_ctx_vlc(ptr noundef %0, ptr noundef %1, ptr noundef %2, ptr noundef %3, ptr noundef %4, ptr noundef %5, ptr noundef %6, ptr noundef %7, i8 noundef zeroext %8, i32 noundef %9, i16 noundef zeroext %10) #5 {
  %12 = alloca ptr, align 8
  %13 = alloca ptr, align 8
  %14 = alloca ptr, align 8
  %15 = alloca ptr, align 8
  %16 = alloca ptr, align 8
  %17 = alloca ptr, align 8
  %18 = alloca ptr, align 8
  %19 = alloca ptr, align 8
  %20 = alloca i8, align 1
  %21 = alloca i32, align 4
  %22 = alloca i16, align 2
  %23 = alloca i32, align 4
  %24 = alloca i8, align 1
  %25 = alloca i64, align 8
  %26 = alloca i64, align 8
  store ptr %0, ptr %12, align 8, !tbaa !4
  store ptr %1, ptr %13, align 8, !tbaa !47
  store ptr %2, ptr %14, align 8, !tbaa !89
  store ptr %3, ptr %15, align 8, !tbaa !20
  store ptr %4, ptr %16, align 8, !tbaa !20
  store ptr %5, ptr %17, align 8, !tbaa !20
  store ptr %6, ptr %18, align 8, !tbaa !20
  store ptr %7, ptr %19, align 8, !tbaa !20
  store i8 %8, ptr %20, align 1, !tbaa !17
  store i32 %9, ptr %21, align 4, !tbaa !15
  store i16 %10, ptr %22, align 2, !tbaa !63
  call void @llvm.lifetime.start.p0(i64 4, ptr %23) #10
  call void @llvm.lifetime.start.p0(i64 1, ptr %24) #10
  call void @llvm.lifetime.start.p0(i64 8, ptr %25) #10
  call void @llvm.lifetime.start.p0(i64 8, ptr %26) #10
  %27 = load ptr, ptr %13, align 8, !tbaa !47
  %28 = load ptr, ptr %15, align 8, !tbaa !20
  %29 = load i32, ptr %21, align 4, !tbaa !15
  %30 = zext i32 %29 to i64
  %31 = getelementptr inbounds nuw i8, ptr %28, i64 %30
  %32 = call i32 @jpeg2000_bitbuf_refill_backwards(ptr noundef %27, ptr noundef %31)
  %33 = load ptr, ptr %13, align 8, !tbaa !47
  %34 = getelementptr inbounds nuw %struct.StateVars, ptr %33, i32 0, i32 5
  %35 = load i64, ptr %34, align 8, !tbaa !51
  %36 = and i64 %35, 127
  store i64 %36, ptr %26, align 8, !tbaa !64
  %37 = load i64, ptr %26, align 8, !tbaa !64
  %38 = load i16, ptr %22, align 2, !tbaa !63
  %39 = zext i16 %38 to i32
  %40 = shl i32 %39, 7
  %41 = sext i32 %40 to i64
  %42 = add i64 %37, %41
  store i64 %42, ptr %25, align 8, !tbaa !64
  br label %43

43:                                               ; preds = %11
  %44 = load i64, ptr %25, align 8, !tbaa !64
  %45 = icmp ult i64 %44, 1024
  br i1 %45, label %47, label %46

46:                                               ; preds = %43
  call void (ptr, i32, ptr, ...) @av_log(ptr noundef null, i32 noundef 0, ptr noundef @.str, ptr noundef @.str.9, ptr noundef @.str.2, i32 noundef 318)
  call void @abort() #11
  unreachable

47:                                               ; preds = %43
  br label %48

48:                                               ; preds = %47
  br label %49

49:                                               ; preds = %48
  %50 = load ptr, ptr %14, align 8, !tbaa !89
  %51 = load i64, ptr %25, align 8, !tbaa !64
  %52 = getelementptr inbounds nuw i16, ptr %50, i64 %51
  %53 = load i16, ptr %52, align 2, !tbaa !63
  %54 = zext i16 %53 to i32
  store i32 %54, ptr %23, align 4, !tbaa !15
  %55 = load i32, ptr %23, align 4, !tbaa !15
  %56 = and i32 %55, 15
  %57 = lshr i32 %56, 1
  %58 = trunc i32 %57 to i8
  store i8 %58, ptr %24, align 1, !tbaa !17
  %59 = load i32, ptr %23, align 4, !tbaa !15
  %60 = and i32 %59, 1
  %61 = trunc i32 %60 to i8
  %62 = load ptr, ptr %17, align 8, !tbaa !20
  %63 = load i8, ptr %20, align 1, !tbaa !17
  %64 = zext i8 %63 to i64
  %65 = getelementptr inbounds nuw i8, ptr %62, i64 %64
  store i8 %61, ptr %65, align 1, !tbaa !17
  %66 = load i32, ptr %23, align 4, !tbaa !15
  %67 = and i32 %66, 240
  %68 = lshr i32 %67, 4
  %69 = trunc i32 %68 to i8
  %70 = load ptr, ptr %16, align 8, !tbaa !20
  %71 = load i8, ptr %20, align 1, !tbaa !17
  %72 = zext i8 %71 to i64
  %73 = getelementptr inbounds nuw i8, ptr %70, i64 %72
  store i8 %69, ptr %73, align 1, !tbaa !17
  %74 = load i32, ptr %23, align 4, !tbaa !15
  %75 = and i32 %74, 3840
  %76 = lshr i32 %75, 8
  %77 = trunc i32 %76 to i8
  %78 = load ptr, ptr %18, align 8, !tbaa !20
  %79 = load i8, ptr %20, align 1, !tbaa !17
  %80 = zext i8 %79 to i64
  %81 = getelementptr inbounds nuw i8, ptr %78, i64 %80
  store i8 %77, ptr %81, align 1, !tbaa !17
  %82 = load i32, ptr %23, align 4, !tbaa !15
  %83 = and i32 %82, 61440
  %84 = lshr i32 %83, 12
  %85 = trunc i32 %84 to i8
  %86 = load ptr, ptr %19, align 8, !tbaa !20
  %87 = load i8, ptr %20, align 1, !tbaa !17
  %88 = zext i8 %87 to i64
  %89 = getelementptr inbounds nuw i8, ptr %86, i64 %88
  store i8 %85, ptr %89, align 1, !tbaa !17
  %90 = load ptr, ptr %13, align 8, !tbaa !47
  %91 = load i8, ptr %24, align 1, !tbaa !17
  call void @jpeg2000_bitbuf_drop_bits_lsb(ptr noundef %90, i8 noundef zeroext %91)
  call void @llvm.lifetime.end.p0(i64 8, ptr %26) #10
  call void @llvm.lifetime.end.p0(i64 8, ptr %25) #10
  call void @llvm.lifetime.end.p0(i64 1, ptr %24) #10
  call void @llvm.lifetime.end.p0(i64 4, ptr %23) #10
  ret i32 0
}

; Function Attrs: nounwind uwtable
define internal i32 @jpeg2000_decode_sig_emb(ptr noundef %0, ptr noundef %1, ptr noundef %2, ptr noundef %3, ptr noundef %4, ptr noundef %5, ptr noundef %6, ptr noundef %7, ptr noundef %8, ptr noundef %9, i8 noundef zeroext %10, i16 noundef zeroext %11, i32 noundef %12, i32 noundef %13) #0 {
  %15 = alloca i32, align 4
  %16 = alloca ptr, align 8
  %17 = alloca ptr, align 8
  %18 = alloca ptr, align 8
  %19 = alloca ptr, align 8
  %20 = alloca ptr, align 8
  %21 = alloca ptr, align 8
  %22 = alloca ptr, align 8
  %23 = alloca ptr, align 8
  %24 = alloca ptr, align 8
  %25 = alloca ptr, align 8
  %26 = alloca i8, align 1
  %27 = alloca i16, align 2
  %28 = alloca i32, align 4
  %29 = alloca i32, align 4
  %30 = alloca i8, align 1
  %31 = alloca i32, align 4
  store ptr %0, ptr %16, align 8, !tbaa !4
  store ptr %1, ptr %17, align 8, !tbaa !57
  store ptr %2, ptr %18, align 8, !tbaa !47
  store ptr %3, ptr %19, align 8, !tbaa !47
  store ptr %4, ptr %20, align 8, !tbaa !89
  store ptr %5, ptr %21, align 8, !tbaa !20
  store ptr %6, ptr %22, align 8, !tbaa !20
  store ptr %7, ptr %23, align 8, !tbaa !20
  store ptr %8, ptr %24, align 8, !tbaa !20
  store ptr %9, ptr %25, align 8, !tbaa !20
  store i8 %10, ptr %26, align 1, !tbaa !17
  store i16 %11, ptr %27, align 2, !tbaa !63
  store i32 %12, ptr %28, align 4, !tbaa !15
  store i32 %13, ptr %29, align 4, !tbaa !15
  %32 = load i16, ptr %27, align 2, !tbaa !63
  %33 = zext i16 %32 to i32
  %34 = icmp eq i32 %33, 0
  br i1 %34, label %35, label %66

35:                                               ; preds = %14
  call void @llvm.lifetime.start.p0(i64 1, ptr %30) #10
  %36 = load ptr, ptr %17, align 8, !tbaa !57
  %37 = load ptr, ptr %18, align 8, !tbaa !47
  %38 = load ptr, ptr %21, align 8, !tbaa !20
  %39 = load i32, ptr %28, align 4, !tbaa !15
  %40 = call i32 @jpeg2000_decode_mel_sym(ptr noundef %36, ptr noundef %37, ptr noundef %38, i32 noundef %39)
  %41 = trunc i32 %40 to i8
  store i8 %41, ptr %30, align 1, !tbaa !17
  %42 = load i8, ptr %30, align 1, !tbaa !17
  %43 = zext i8 %42 to i32
  %44 = icmp eq i32 %43, 0
  br i1 %44, label %45, label %62

45:                                               ; preds = %35
  %46 = load ptr, ptr %22, align 8, !tbaa !20
  %47 = load i8, ptr %26, align 1, !tbaa !17
  %48 = zext i8 %47 to i64
  %49 = getelementptr inbounds nuw i8, ptr %46, i64 %48
  store i8 0, ptr %49, align 1, !tbaa !17
  %50 = load ptr, ptr %23, align 8, !tbaa !20
  %51 = load i8, ptr %26, align 1, !tbaa !17
  %52 = zext i8 %51 to i64
  %53 = getelementptr inbounds nuw i8, ptr %50, i64 %52
  store i8 0, ptr %53, align 1, !tbaa !17
  %54 = load ptr, ptr %24, align 8, !tbaa !20
  %55 = load i8, ptr %26, align 1, !tbaa !17
  %56 = zext i8 %55 to i64
  %57 = getelementptr inbounds nuw i8, ptr %54, i64 %56
  store i8 0, ptr %57, align 1, !tbaa !17
  %58 = load ptr, ptr %25, align 8, !tbaa !20
  %59 = load i8, ptr %26, align 1, !tbaa !17
  %60 = zext i8 %59 to i64
  %61 = getelementptr inbounds nuw i8, ptr %58, i64 %60
  store i8 0, ptr %61, align 1, !tbaa !17
  store i32 0, ptr %15, align 4
  store i32 1, ptr %31, align 4
  br label %63

62:                                               ; preds = %35
  store i32 0, ptr %31, align 4
  br label %63

63:                                               ; preds = %62, %45
  call void @llvm.lifetime.end.p0(i64 1, ptr %30) #10
  %64 = load i32, ptr %31, align 4
  switch i32 %64, label %81 [
    i32 0, label %65
    i32 1, label %79
  ]

65:                                               ; preds = %63
  br label %66

66:                                               ; preds = %65, %14
  %67 = load ptr, ptr %16, align 8, !tbaa !4
  %68 = load ptr, ptr %19, align 8, !tbaa !47
  %69 = load ptr, ptr %20, align 8, !tbaa !89
  %70 = load ptr, ptr %21, align 8, !tbaa !20
  %71 = load ptr, ptr %22, align 8, !tbaa !20
  %72 = load ptr, ptr %23, align 8, !tbaa !20
  %73 = load ptr, ptr %24, align 8, !tbaa !20
  %74 = load ptr, ptr %25, align 8, !tbaa !20
  %75 = load i8, ptr %26, align 1, !tbaa !17
  %76 = load i32, ptr %29, align 4, !tbaa !15
  %77 = load i16, ptr %27, align 2, !tbaa !63
  %78 = call i32 @jpeg2000_decode_ctx_vlc(ptr noundef %67, ptr noundef %68, ptr noundef %69, ptr noundef %70, ptr noundef %71, ptr noundef %72, ptr noundef %73, ptr noundef %74, i8 noundef zeroext %75, i32 noundef %76, i16 noundef zeroext %77)
  store i32 %78, ptr %15, align 4
  br label %79

79:                                               ; preds = %66, %63
  %80 = load i32, ptr %15, align 4
  ret i32 %80

81:                                               ; preds = %63
  unreachable
}