; Function Attrs: nounwind uwtable
define internal fastcc void @jpeg2000_decode_sig_emb(ptr noundef nonnull captures(none) %0, ptr noundef nonnull captures(none) %1, ptr noundef nonnull captures(none) %2, ptr noundef readonly captures(none) %3, ptr noundef readonly captures(none) %4, ptr noundef nonnull writeonly captures(none) %5, ptr noundef nonnull writeonly captures(none) %6, ptr noundef nonnull writeonly captures(none) %7, ptr noundef nonnull writeonly captures(none) %8, i8 noundef zeroext range(i8 0, 2) %9, i16 noundef zeroext range(i16 0, 2048) %10, i32 noundef range(i32 2, 0) %11, i32 noundef %12) unnamed_addr #0 {
  %14 = icmp eq i16 %10, 0
  br i1 %14, label %15, label %26

15:                                               ; preds = %13
  %16 = tail call fastcc i32 @jpeg2000_decode_mel_sym(ptr noundef %0, ptr noundef %1, ptr noundef %4, i32 noundef %11)
  %17 = icmp eq i32 %16, 0
  br i1 %17, label %20, label %.thread2

.thread2:                                         ; preds = %15
  %18 = zext i32 %12 to i64
  %19 = getelementptr inbounds nuw i8, ptr %4, i64 %18
  tail call fastcc void @jpeg2000_bitbuf_refill_backwards(ptr noundef nonnull %2, ptr noundef %19)
  br label %jpeg2000_decode_ctx_vlc.exit

20:                                               ; preds = %15
  %21 = zext nneg i8 %9 to i64
  %22 = getelementptr inbounds nuw i8, ptr %5, i64 %21
  store i8 0, ptr %22, align 1, !tbaa !34
  %23 = getelementptr inbounds nuw i8, ptr %6, i64 %21
  store i8 0, ptr %23, align 1, !tbaa !34
  %24 = getelementptr inbounds nuw i8, ptr %7, i64 %21
  store i8 0, ptr %24, align 1, !tbaa !34
  %25 = getelementptr inbounds nuw i8, ptr %8, i64 %21
  store i8 0, ptr %25, align 1, !tbaa !34
  br label %59

26:                                               ; preds = %13
  %27 = zext i32 %12 to i64
  %28 = getelementptr inbounds nuw i8, ptr %4, i64 %27
  tail call fastcc void @jpeg2000_bitbuf_refill_backwards(ptr noundef nonnull %2, ptr noundef %28)
  %29 = icmp samesign ult i16 %10, 8
  br i1 %29, label %jpeg2000_decode_ctx_vlc.exit, label %30

30:                                               ; preds = %26
  tail call void (ptr, i32, ptr, ...) @av_log(ptr noundef null, i32 noundef 0, ptr noundef nonnull @.str, ptr noundef nonnull @.str.9, ptr noundef nonnull @.str.2, i32 noundef 318) #9
  tail call void @abort() #10
  unreachable

jpeg2000_decode_ctx_vlc.exit:                     ; preds = %.thread2, %26
  %31 = getelementptr inbounds nuw i8, ptr %2, i64 24
  %32 = load i64, ptr %31, align 8, !tbaa !38
  %33 = and i64 %32, 127
  %34 = getelementptr inbounds nuw i16, ptr %3, i64 %33
  %35 = shl nuw nsw i16 %10, 8
  %.idx.i = zext nneg i16 %35 to i64
  %36 = getelementptr inbounds nuw i8, ptr %34, i64 %.idx.i
  %37 = load i16, ptr %36, align 2, !tbaa !81
  %38 = trunc i16 %37 to i8
  %39 = lshr i8 %38, 1
  %40 = and i8 %39, 7
  %41 = and i8 %38, 1
  %42 = zext nneg i8 %9 to i64
  %43 = getelementptr inbounds nuw i8, ptr %6, i64 %42
  store i8 %41, ptr %43, align 1, !tbaa !34
  %44 = lshr i8 %38, 4
  %45 = getelementptr inbounds nuw i8, ptr %5, i64 %42
  store i8 %44, ptr %45, align 1, !tbaa !34
  %46 = lshr i16 %37, 8
  %47 = trunc nuw i16 %46 to i8
  %48 = and i8 %47, 15
  %49 = getelementptr inbounds nuw i8, ptr %7, i64 %42
  store i8 %48, ptr %49, align 1, !tbaa !34
  %50 = lshr i16 %37, 12
  %51 = trunc nuw nsw i16 %50 to i8
  %52 = getelementptr inbounds nuw i8, ptr %8, i64 %42
  store i8 %51, ptr %52, align 1, !tbaa !34
  %53 = load i64, ptr %31, align 8, !tbaa !38
  %54 = zext nneg i8 %40 to i64
  %55 = lshr i64 %53, %54
  store i64 %55, ptr %31, align 8, !tbaa !38
  %56 = getelementptr inbounds nuw i8, ptr %2, i64 16
  %57 = load i8, ptr %56, align 8, !tbaa !41
  %58 = sub i8 %57, %40
  store i8 %58, ptr %56, align 8, !tbaa !41
  br label %59

59:                                               ; preds = %20, %jpeg2000_decode_ctx_vlc.exit
  ret void
}